(dp1
S'layout'
p2
(ilayout
Layout
p3
(dp4
S'capsules'
p5
(lp6
(I6
I5
tp7
a(I25
I10
tp8
asS'numGhosts'
p9
I4
sS'food'
p10
(igame
Grid
p11
(dp12
S'CELLS_PER_INT'
p13
I30
sS'width'
p14
I32
sS'data'
p15
(lp16
(lp17
I00
aI00
aI00
aI00
aI00
aI00
aI00
aI00
aI00
aI00
aI00
aI00
aI00
aI00
aI00
aI00
aa(lp18
I00
aI00
aI00
aI00
aI00
aI00
aI00
aI00
aI00
aI00
aI00
aI00
aI00
aI00
aI00
aI00
aa(lp19
I00
aI00
aI00
aI00
aI00
aI00
aI00
aI00
aI00
aI00
aI00
aI00
aI00
aI00
aI00
aI00
aa(lp20
I00
aI01
aI01
aI00
aI00
aI00
aI00
aI00
aI01
aI00
aI00
aI00
aI00
aI00
aI00
aI00
aa(lp21
I00
aI00
aI00
aI00
aI00
aI00
aI00
aI00
aI00
aI00
aI00
aI00
aI00
aI00
aI00
aI00
aa(lp22
I00
aI01
aI00
aI00
aI00
aI00
aI00
aI00
aI00
aI00
aI00
aI00
aI01
aI00
aI01
aI00
aa(lp23
I00
aI00
aI00
aI00
aI00
aI00
aI00
aI00
aI00
aI00
aI00
aI00
aI00
aI00
aI00
aI00
aa(lp24
I00
aI00
aI00
aI01
aI00
aI00
aI00
aI00
aI01
aI01
aI00
aI00
aI00
aI00
aI00
aI00
aa(lp25
I00
aI00
aI00
aI01
aI00
aI00
aI00
aI00
aI00
aI01
aI00
aI00
aI00
aI00
aI01
aI00
aa(lp26
I00
aI00
aI00
aI00
aI00
aI01
aI00
aI00
aI00
aI00
aI00
aI01
aI00
aI00
aI00
aI00
aa(lp27
I00
aI00
aI00
aI01
aI00
aI00
aI00
aI01
aI00
aI01
aI00
aI01
aI00
aI00
aI01
aI00
aa(lp28
I00
aI00
aI00
aI00
aI00
aI00
aI00
aI00
aI00
aI00
aI00
aI00
aI00
aI00
aI00
aI00
aa(lp29
I00
aI00
aI00
aI00
aI00
aI00
aI00
aI00
aI00
aI00
aI00
aI00
aI00
aI00
aI00
aI00
aa(lp30
I00
aI00
aI00
aI00
aI00
aI00
aI00
aI00
aI00
aI00
aI00
aI00
aI00
aI00
aI00
aI00
aa(lp31
I00
aI00
aI00
aI00
aI00
aI00
aI00
aI00
aI00
aI01
aI00
aI00
aI00
aI00
aI00
aI00
aa(lp32
I00
aI00
aI00
aI00
aI00
aI00
aI00
aI00
aI00
aI00
aI00
aI00
aI00
aI00
aI00
aI00
aa(lp33
I00
aI00
aI00
aI00
aI00
aI00
aI00
aI00
aI00
aI00
aI00
aI00
aI00
aI00
aI00
aI00
aa(lp34
I00
aI00
aI00
aI00
aI00
aI00
aI01
aI00
aI00
aI00
aI00
aI00
aI00
aI00
aI00
aI00
aa(lp35
I00
aI00
aI00
aI00
aI00
aI00
aI00
aI00
aI00
aI00
aI00
aI00
aI00
aI00
aI00
aI00
aa(lp36
I00
aI00
aI00
aI00
aI00
aI00
aI00
aI00
aI00
aI00
aI00
aI00
aI00
aI00
aI00
aI00
aa(lp37
I00
aI00
aI00
aI00
aI00
aI00
aI00
aI00
aI00
aI00
aI00
aI00
aI00
aI00
aI00
aI00
aa(lp38
I00
aI01
aI00
aI00
aI01
aI00
aI01
aI00
aI01
aI00
aI00
aI00
aI01
aI00
aI00
aI00
aa(lp39
I00
aI00
aI00
aI00
aI01
aI00
aI00
aI00
aI00
aI00
aI01
aI00
aI00
aI00
aI00
aI00
aa(lp40
I00
aI01
aI00
aI00
aI00
aI00
aI01
aI00
aI00
aI00
aI00
aI00
aI01
aI00
aI00
aI00
aa(lp41
I00
aI00
aI00
aI00
aI00
aI00
aI01
aI01
aI00
aI00
aI00
aI00
aI01
aI00
aI00
aI00
aa(lp42
I00
aI00
aI00
aI00
aI00
aI00
aI00
aI00
aI00
aI00
aI00
aI00
aI00
aI00
aI00
aI00
aa(lp43
I00
aI01
aI00
aI01
aI00
aI00
aI00
aI00
aI00
aI00
aI00
aI00
aI00
aI00
aI01
aI00
aa(lp44
I00
aI00
aI00
aI00
aI00
aI00
aI00
aI00
aI00
aI00
aI00
aI00
aI00
aI00
aI00
aI00
aa(lp45
I00
aI00
aI00
aI00
aI00
aI00
aI00
aI01
aI00
aI00
aI00
aI00
aI00
aI01
aI01
aI00
aa(lp46
I00
aI00
aI00
aI00
aI00
aI00
aI00
aI00
aI00
aI00
aI00
aI00
aI00
aI00
aI00
aI00
aa(lp47
I00
aI00
aI00
aI00
aI00
aI00
aI00
aI00
aI00
aI00
aI00
aI00
aI00
aI00
aI00
aI00
aa(lp48
I00
aI00
aI00
aI00
aI00
aI00
aI00
aI00
aI00
aI00
aI00
aI00
aI00
aI00
aI00
aI00
aasS'height'
p49
I16
sbsS'agentPositions'
p50
(lp51
(I00
(I1
I2
tp52
tp53
a(I00
(I30
I13
tp54
tp55
a(I00
(I1
I1
tp56
tp57
a(I00
(I30
I14
tp58
tp59
asg49
I16
sg14
I32
sS'walls'
p60
(igame
Grid
p61
(dp62
g13
I30
sg14
I32
sg15
(lp63
(lp64
I01
aI01
aI01
aI01
aI01
aI01
aI01
aI01
aI01
aI01
aI01
aI01
aI01
aI01
aI01
aI01
aa(lp65
I01
aI00
aI00
aI00
aI00
aI00
aI00
aI00
aI00
aI00
aI00
aI00
aI00
aI00
aI00
aI01
aa(lp66
I01
aI01
aI01
aI01
aI01
aI01
aI01
aI01
aI01
aI01
aI01
aI01
aI01
aI01
aI00
aI01
aa(lp67
I01
aI00
aI00
aI00
aI00
aI00
aI00
aI01
aI00
aI01
aI00
aI00
aI00
aI00
aI00
aI01
aa(lp68
I01
aI01
aI01
aI01
aI01
aI01
aI00
aI00
aI00
aI00
aI00
aI01
aI01
aI01
aI01
aI01
aa(lp69
I01
aI00
aI00
aI00
aI00
aI00
aI00
aI00
aI01
aI01
aI00
aI01
aI00
aI01
aI00
aI01
aa(lp70
I01
aI01
aI00
aI01
aI01
aI00
aI01
aI01
aI01
aI00
aI00
aI00
aI00
aI00
aI00
aI01
aa(lp71
I01
aI00
aI00
aI00
aI01
aI00
aI00
aI01
aI00
aI00
aI01
aI01
aI01
aI00
aI01
aI01
aa(lp72
I01
aI00
aI01
aI00
aI01
aI01
aI00
aI01
aI01
aI00
aI01
aI00
aI00
aI00
aI00
aI01
aa(lp73
I01
aI00
aI01
aI01
aI01
aI00
aI00
aI01
aI01
aI01
aI01
aI00
aI01
aI00
aI01
aI01
aa(lp74
I01
aI00
aI01
aI00
aI01
aI01
aI00
aI00
aI01
aI00
aI01
aI00
aI01
aI00
aI00
aI01
aa(lp75
I01
aI00
aI00
aI00
aI00
aI01
aI00
aI01
aI01
aI00
aI01
aI01
aI01
aI00
aI01
aI01
aa(lp76
I01
aI01
aI00
aI01
aI00
aI01
aI00
aI00
aI00
aI00
aI00
aI00
aI00
aI00
aI00
aI01
aa(lp77
I01
aI00
aI00
aI01
aI00
aI00
aI00
aI00
aI00
aI01
aI01
aI01
aI00
aI01
aI00
aI01
aa(lp78
I01
aI00
aI01
aI01
aI01
aI00
aI01
aI00
aI00
aI00
aI01
aI00
aI00
aI01
aI00
aI01
aa(lp79
I01
aI00
aI00
aI01
aI00
aI00
aI01
aI00
aI00
aI01
aI01
aI00
aI00
aI00
aI00
aI01
aa(lp80
I01
aI00
aI00
aI00
aI00
aI01
aI01
aI00
aI00
aI01
aI00
aI00
aI01
aI00
aI00
aI01
aa(lp81
I01
aI00
aI01
aI00
aI00
aI01
aI00
aI00
aI00
aI01
aI00
aI01
aI01
aI01
aI00
aI01
aa(lp82
I01
aI00
aI01
aI00
aI01
aI01
aI01
aI00
aI00
aI00
aI00
aI00
aI01
aI00
aI00
aI01
aa(lp83
I01
aI00
aI00
aI00
aI00
aI00
aI00
aI00
aI00
aI00
aI01
aI00
aI01
aI00
aI01
aI01
aa(lp84
I01
aI01
aI00
aI01
aI01
aI01
aI00
aI01
aI01
aI00
aI01
aI00
aI00
aI00
aI00
aI01
aa(lp85
I01
aI00
aI00
aI01
aI00
aI01
aI00
aI01
aI00
aI00
aI01
aI01
aI00
aI01
aI00
aI01
aa(lp86
I01
aI01
aI00
aI01
aI00
aI01
aI01
aI01
aI01
aI00
aI00
aI01
aI01
aI01
aI00
aI01
aa(lp87
I01
aI00
aI00
aI00
aI00
aI01
aI00
aI01
aI01
aI00
aI01
aI01
aI00
aI01
aI00
aI01
aa(lp88
I01
aI01
aI00
aI01
aI01
aI01
aI00
aI00
aI01
aI00
aI00
aI01
aI00
aI00
aI00
aI01
aa(lp89
I01
aI00
aI00
aI00
aI00
aI00
aI00
aI01
aI01
aI01
aI00
aI01
aI01
aI00
aI01
aI01
aa(lp90
I01
aI00
aI01
aI00
aI01
aI00
aI01
aI01
aI00
aI00
aI00
aI00
aI00
aI00
aI00
aI01
aa(lp91
I01
aI01
aI01
aI01
aI01
aI00
aI00
aI00
aI00
aI00
aI01
aI01
aI01
aI01
aI01
aI01
aa(lp92
I01
aI00
aI00
aI00
aI00
aI00
aI01
aI00
aI01
aI00
aI00
aI00
aI00
aI00
aI00
aI01
aa(lp93
I01
aI00
aI01
aI01
aI01
aI01
aI01
aI01
aI01
aI01
aI01
aI01
aI01
aI01
aI01
aI01
aa(lp94
I01
aI00
aI00
aI00
aI00
aI00
aI00
aI00
aI00
aI00
aI00
aI00
aI00
aI00
aI00
aI01
aa(lp95
I01
aI01
aI01
aI01
aI01
aI01
aI01
aI01
aI01
aI01
aI01
aI01
aI01
aI01
aI01
aI01
aasg49
I16
sbsS'layoutText'
p96
(lp97
S'%%%%%%%%%%%%%%%%%%%%%%%%%%%%%%%%'
p98
aS'%   %. %.%.%       %     %.%.%4%'
p99
aS'% % %%       %%  %   %%%   %.%2%'
p100
aS'% % %. % %%%    %%%% .%..% % % %'
p101
aS'% % %% % ..% %   %   %%%%% % % %'
p102
aS'% %    %%%%% %%%   %%%.% o % % %'
p103
aS'% %% % ..%.  %.%%%       %   % %'
p104
aS'% %. %%.%%%%        %.%%%%  %% %'
p105
aS'% %%  %%%%.%        %%%%.%% .% %'
p106
aS'% %   %       %%%.%  .%.. % %% %'
p107
aS'% % % o %.%%%   %%% %%%%%    % %'
p108
aS'% % % %%%%%   %   % %.. % %% % %'
p109
aS'% % % %..%. %%%%    %%% % .% % %'
p110
aS'%1%.%   %%%   %  %%       %% % %'
p111
aS'%3%.%.%     %       %.%.% .%   %'
p112
aS'%%%%%%%%%%%%%%%%%%%%%%%%%%%%%%%%'
p113
asbsS'blueTeamName'
p114
S'JK'
p115
sS'actions'
p116
(lp117
(I1
S'South'
p118
tp119
a(I2
S'North'
p120
tp121
a(I3
g118
tp122
a(I0
g120
tp123
a(I1
g118
tp124
a(I2
g120
tp125
a(I3
g118
tp126
a(I0
g120
tp127
a(I1
g118
tp128
a(I2
g120
tp129
a(I3
g118
tp130
a(I0
g120
tp131
a(I1
g118
tp132
a(I2
g120
tp133
a(I3
g118
tp134
a(I0
g120
tp135
a(I1
g118
tp136
a(I2
g120
tp137
a(I3
g118
tp138
a(I0
g120
tp139
a(I1
g118
tp140
a(I2
g120
tp141
a(I3
g118
tp142
a(I0
g120
tp143
a(I1
g118
tp144
a(I2
g120
tp145
a(I3
g118
tp146
a(I0
g120
tp147
a(I1
g118
tp148
a(I2
g120
tp149
a(I3
g118
tp150
a(I0
g120
tp151
a(I1
g118
tp152
a(I2
g120
tp153
a(I3
g118
tp154
a(I0
g120
tp155
a(I1
g118
tp156
a(I2
g120
tp157
a(I3
g118
tp158
a(I0
g120
tp159
a(I1
g118
tp160
a(I2
g120
tp161
a(I3
g118
tp162
a(I0
g120
tp163
a(I1
g118
tp164
a(I2
g120
tp165
a(I3
g118
tp166
a(I0
g120
tp167
a(I1
S'West'
p168
tp169
a(I2
g120
tp170
a(I3
g118
tp171
a(I0
S'East'
p172
tp173
a(I1
g168
tp174
a(I2
g172
tp175
a(I3
g168
tp176
a(I0
g172
tp177
a(I1
g120
tp178
a(I2
g172
tp179
a(I3
g168
tp180
a(I0
g118
tp181
a(I1
g120
tp182
a(I2
g118
tp183
a(I3
g120
tp184
a(I0
g118
tp185
a(I1
g120
tp186
a(I2
g118
tp187
a(I3
g120
tp188
a(I0
g118
tp189
a(I1
g120
tp190
a(I2
g118
tp191
a(I3
g120
tp192
a(I0
g118
tp193
a(I1
g168
tp194
a(I2
g118
tp195
a(I3
g120
tp196
a(I0
g172
tp197
a(I1
g120
tp198
a(I2
g172
tp199
a(I3
g168
tp200
a(I0
g172
tp201
a(I1
g120
tp202
a(I2
g172
tp203
a(I3
g120
tp204
a(I0
g172
tp205
a(I1
g120
tp206
a(I2
g172
tp207
a(I3
g118
tp208
a(I0
g120
tp209
a(I1
g168
tp210
a(I2
g120
tp211
a(I3
g168
tp212
a(I0
g120
tp213
a(I1
g120
tp214
a(I2
g120
tp215
a(I3
g168
tp216
a(I0
g120
tp217
a(I1
g120
tp218
a(I2
g120
tp219
a(I3
g118
tp220
a(I0
g172
tp221
a(I1
g168
tp222
a(I2
g172
tp223
a(I3
g118
tp224
a(I0
g172
tp225
a(I1
g168
tp226
a(I2
g172
tp227
a(I3
g118
tp228
a(I0
g172
tp229
a(I1
g118
tp230
a(I2
g172
tp231
a(I3
g168
tp232
a(I0
g172
tp233
a(I1
g168
tp234
a(I2
g172
tp235
a(I3
g168
tp236
a(I0
g172
tp237
a(I1
g168
tp238
a(I2
g172
tp239
a(I3
g168
tp240
a(I0
g172
tp241
a(I1
g168
tp242
a(I2
g172
tp243
a(I3
g168
tp244
a(I0
g118
tp245
a(I1
g168
tp246
a(I2
g118
tp247
a(I3
g168
tp248
a(I0
g172
tp249
a(I1
g168
tp250
a(I2
g118
tp251
a(I3
g168
tp252
a(I0
g172
tp253
a(I1
g168
tp254
a(I2
g118
tp255
a(I3
g120
tp256
a(I0
g172
tp257
a(I1
g120
tp258
a(I2
g118
tp259
a(I3
g120
tp260
a(I0
g120
tp261
a(I1
g168
tp262
a(I2
g118
tp263
a(I3
g120
tp264
a(I0
g118
tp265
a(I1
g172
tp266
a(I2
g172
tp267
a(I3
g118
tp268
a(I0
g118
tp269
a(I1
g168
tp270
a(I2
g172
tp271
a(I3
g120
tp272
a(I0
g168
tp273
a(I1
g172
tp274
a(I2
g172
tp275
a(I3
g118
tp276
a(I0
g172
tp277
a(I1
g118
tp278
a(I2
g168
tp279
a(I3
g118
tp280
a(I0
g172
tp281
a(I1
g120
tp282
a(I2
g172
tp283
a(I3
g120
tp284
a(I0
g168
tp285
a(I1
g168
tp286
a(I2
g172
tp287
a(I3
g120
tp288
a(I0
g120
tp289
a(I1
g172
tp290
a(I2
g172
tp291
a(I3
g120
tp292
a(I0
g120
tp293
a(I1
g118
tp294
a(I2
g168
tp295
a(I3
g120
tp296
a(I0
g172
tp297
a(I1
g118
tp298
a(I2
g168
tp299
a(I3
g118
tp300
a(I0
g120
tp301
a(I1
g168
tp302
a(I2
g168
tp303
a(I3
g120
tp304
a(I0
g172
tp305
a(I1
g172
tp306
a(I2
g118
tp307
a(I3
g120
tp308
a(I0
g168
tp309
a(I1
g120
tp310
a(I2
g172
tp311
a(I3
g168
tp312
a(I0
g172
tp313
a(I1
g118
tp314
a(I2
g120
tp315
a(I3
g168
tp316
a(I0
g172
tp317
a(I1
g120
tp318
a(I2
g168
tp319
a(I3
g172
tp320
a(I0
g118
tp321
a(I1
g120
tp322
a(I2
g120
tp323
a(I3
g120
tp324
a(I0
g172
tp325
a(I1
g120
tp326
a(I2
g118
tp327
a(I3
g120
tp328
a(I0
g168
tp329
a(I1
g172
tp330
a(I2
g172
tp331
a(I3
g120
tp332
a(I0
g172
tp333
a(I1
g172
tp334
a(I2
g172
tp335
a(I3
g172
tp336
a(I0
g168
tp337
a(I1
g120
tp338
a(I2
g172
tp339
a(I3
g172
tp340
a(I0
g120
tp341
a(I1
g120
tp342
a(I2
g172
tp343
a(I3
g120
tp344
a(I0
g168
tp345
a(I1
g168
tp346
a(I2
g172
tp347
a(I3
g120
tp348
a(I0
g168
tp349
a(I1
g168
tp350
a(I2
g168
tp351
a(I3
g168
tp352
a(I0
g118
tp353
a(I1
g120
tp354
a(I2
g172
tp355
a(I3
g168
tp356
a(I0
g168
tp357
a(I1
g168
tp358
a(I2
g120
tp359
a(I3
g172
tp360
a(I0
g118
tp361
a(I1
g168
tp362
a(I2
g172
tp363
a(I3
g172
tp364
a(I0
g118
tp365
a(I1
g118
tp366
a(I2
g172
tp367
a(I3
g118
tp368
a(I0
g172
tp369
a(I1
g120
tp370
a(I2
g172
tp371
a(I3
g118
tp372
a(I0
g118
tp373
a(I1
g118
tp374
a(I2
g120
tp375
a(I3
g168
tp376
a(I0
g120
tp377
a(I1
g120
tp378
a(I2
g118
tp379
a(I3
g168
tp380
a(I0
g118
tp381
a(I1
g118
tp382
a(I2
g172
tp383
a(I3
g118
tp384
a(I0
g120
tp385
a(I1
g120
tp386
a(I2
g172
tp387
a(I3
g168
tp388
a(I0
g168
tp389
a(I1
g168
tp390
a(I2
g168
tp391
a(I3
g172
tp392
a(I0
g120
tp393
a(I1
g168
tp394
a(I2
g172
tp395
a(I3
g118
tp396
a(I0
g118
tp397
a(I1
g168
tp398
a(I2
g120
tp399
a(I3
g118
tp400
a(I0
g168
tp401
a(I1
g168
tp402
a(I2
g118
tp403
a(I3
g172
tp404
a(I0
g120
tp405
a(I1
g118
tp406
a(I2
g120
tp407
a(I3
g168
tp408
a(I0
g118
tp409
a(I1
g168
tp410
a(I2
g172
tp411
a(I3
g118
tp412
a(I0
g120
tp413
a(I1
g168
tp414
a(I2
g172
tp415
a(I3
g120
tp416
a(I0
g168
tp417
a(I1
g120
tp418
a(I2
g118
tp419
a(I3
g168
tp420
a(I0
g168
tp421
a(I1
g118
tp422
a(I2
g172
tp423
a(I3
g172
tp424
a(I0
g120
tp425
a(I1
g168
tp426
a(I2
g118
tp427
a(I3
g172
tp428
a(I0
g120
tp429
a(I1
g168
tp430
a(I2
g120
tp431
a(I3
g168
tp432
a(I0
g118
tp433
a(I1
g120
tp434
a(I2
g118
tp435
a(I3
g118
tp436
a(I0
g120
tp437
a(I1
g118
tp438
a(I2
g118
tp439
a(I3
g172
tp440
a(I0
g172
tp441
a(I1
g118
tp442
a(I2
g172
tp443
a(I3
g118
tp444
a(I0
g172
tp445
a(I1
g118
tp446
a(I2
g168
tp447
a(I3
g120
tp448
a(I0
g168
tp449
a(I1
g172
tp450
a(I2
g118
tp451
a(I3
g120
tp452
a(I0
g168
tp453
a(I1
g172
tp454
a(I2
g118
tp455
a(I3
g168
tp456
a(I0
g172
tp457
a(I1
g168
tp458
a(I2
g168
tp459
a(I3
g118
tp460
a(I0
g172
tp461
a(I1
g168
tp462
a(I2
g168
tp463
a(I3
g168
tp464
a(I0
g172
tp465
a(I1
g120
tp466
a(I2
g120
tp467
a(I3
g120
tp468
a(I0
g168
tp469
a(I1
g120
tp470
a(I2
g168
tp471
a(I3
g168
tp472
a(I0
g168
tp473
a(I1
g168
tp474
a(I2
g120
tp475
a(I3
g168
tp476
a(I0
g168
tp477
a(I1
g168
tp478
a(I2
g118
tp479
a(I3
g168
tp480
a(I0
g172
tp481
a(I1
g118
tp482
a(I2
g168
tp483
a(I3
g120
tp484
a(I0
g168
tp485
a(I1
g168
tp486
a(I2
g172
tp487
a(I3
g118
tp488
a(I0
g172
tp489
a(I1
g172
tp490
a(I2
g172
tp491
a(I3
g168
tp492
a(I0
g172
tp493
a(I1
g120
tp494
a(I2
g118
tp495
a(I3
g168
tp496
a(I0
g172
tp497
a(I1
g120
tp498
a(I2
g118
tp499
a(I3
g120
tp500
a(I0
g168
tp501
a(I1
g168
tp502
a(I2
g118
tp503
a(I3
g168
tp504
a(I0
g172
tp505
a(I1
g172
tp506
a(I2
g172
tp507
a(I3
g168
tp508
a(I0
g172
tp509
a(I1
g118
tp510
a(I2
g168
tp511
a(I3
g172
tp512
a(I0
g172
tp513
a(I1
g118
tp514
a(I2
g118
tp515
a(I3
g172
tp516
a(I0
g172
tp517
a(I1
g118
tp518
a(I2
g118
tp519
a(I3
g118
tp520
a(I0
g168
tp521
a(I1
g118
tp522
a(I2
g172
tp523
a(I3
g118
tp524
a(I0
g172
tp525
a(I1
g118
tp526
a(I2
g168
tp527
a(I3
g118
tp528
a(I0
g118
tp529
a(I1
g172
tp530
a(I2
g120
tp531
a(I3
g168
tp532
a(I0
g172
tp533
a(I1
g118
tp534
a(I2
g168
tp535
a(I3
g168
tp536
a(I0
g172
tp537
a(I1
g120
tp538
a(I2
g168
tp539
a(I3
g120
tp540
a(I0
g168
tp541
a(I1
g172
tp542
a(I2
g118
tp543
a(I3
g118
tp544
a(I0
g172
tp545
a(I1
g168
tp546
a(I2
g120
tp547
a(I3
g168
tp548
a(I0
g168
tp549
a(I1
g168
tp550
a(I2
g120
tp551
a(I3
g118
tp552
a(I0
g168
tp553
a(I1
g120
tp554
a(I2
g120
tp555
a(I3
g120
tp556
a(I0
g120
tp557
a(I1
g168
tp558
a(I2
g168
tp559
a(I3
g168
tp560
a(I0
g118
tp561
a(I1
g168
tp562
a(I2
g168
tp563
a(I3
g168
tp564
a(I0
g172
tp565
a(I1
g118
tp566
a(I2
g172
tp567
a(I3
g118
tp568
a(I0
g168
tp569
a(I1
g118
tp570
a(I2
g172
tp571
a(I3
g168
tp572
a(I0
g172
tp573
a(I1
g168
tp574
a(I2
g168
tp575
a(I3
g168
tp576
a(I0
g172
tp577
a(I1
g172
tp578
a(I2
g168
tp579
a(I3
g118
tp580
a(I0
g120
tp581
a(I1
g118
tp582
a(I2
g172
tp583
a(I3
g118
tp584
a(I0
g118
tp585
a(I1
g118
tp586
a(I2
g172
tp587
a(I3
g118
tp588
a(I0
g120
tp589
a(I1
g172
tp590
a(I2
g168
tp591
a(I3
g118
tp592
a(I0
g118
tp593
a(I1
g118
tp594
a(I2
g172
tp595
a(I3
g120
tp596
a(I0
g118
tp597
a(I1
g120
tp598
a(I2
g118
tp599
a(I3
g172
tp600
a(I0
g172
tp601
a(I1
g118
tp602
a(I2
g118
tp603
a(I3
g172
tp604
a(I0
g168
tp605
a(I1
g118
tp606
a(I2
g172
tp607
a(I3
g120
tp608
a(I0
g120
tp609
a(I1
g118
tp610
a(I2
g168
tp611
a(I3
g172
tp612
a(I0
g120
tp613
a(I1
g118
tp614
a(I2
g118
tp615
a(I3
g168
tp616
a(I0
g118
tp617
a(I1
g120
tp618
a(I2
g120
tp619
a(I3
g118
tp620
a(I0
g168
tp621
a(I1
g120
tp622
a(I2
g168
tp623
a(I3
g118
tp624
a(I0
g168
tp625
a(I1
g118
tp626
a(I2
g168
tp627
a(I3
g172
tp628
a(I0
g120
tp629
a(I1
g118
tp630
a(I2
g118
tp631
a(I3
g172
tp632
a(I0
g168
tp633
a(I1
g172
tp634
a(I2
g120
tp635
a(I3
g172
tp636
a(I0
g172
tp637
a(I1
g172
tp638
a(I2
g168
tp639
a(I3
g172
tp640
a(I0
g168
tp641
a(I1
g118
tp642
a(I2
g168
tp643
a(I3
g120
tp644
a(I0
g168
tp645
a(I1
g172
tp646
a(I2
g120
tp647
a(I3
g120
tp648
a(I0
g172
tp649
a(I1
g172
tp650
a(I2
g120
tp651
a(I3
g168
tp652
asS'length'
p653
I1200
sS'agents'
p654
(lp655
(igame
Agent
p656
(dp657
S'index'
p658
I0
sba(igame
Agent
p659
(dp660
g658
I0
sba(igame
Agent
p661
(dp662
g658
I0
sba(igame
Agent
p663
(dp664
g658
I0
sbasS'redTeamName'
p665
S'Team42'
p666
s.